target datalayout = "e-m:e-p270:32:32-p271:32:32-p272:64:64-i64:64-i128:128-f80:128-n8:16:32:64-S128"
target triple = "x86_64-pc-linux-gnu"

; Function Attrs: nounwind uwtable
define internal i32 @ExtractAlpha_C(ptr noalias noundef %0, i32 noundef %1, i32 noundef %2, i32 noundef %3, ptr noalias noundef %4, i32 noundef %5) #0 {
  %7 = alloca ptr, align 8
  %8 = alloca i32, align 4
  %9 = alloca i32, align 4
  %10 = alloca i32, align 4
  %11 = alloca ptr, align 8
  %12 = alloca i32, align 4
  %13 = alloca i8, align 1
  %14 = alloca i32, align 4
  %15 = alloca i32, align 4
  %16 = alloca i8, align 1
  store ptr %0, ptr %7, align 8, !tbaa !13
  store i32 %1, ptr %8, align 4, !tbaa !8
  store i32 %2, ptr %9, align 4, !tbaa !8
  store i32 %3, ptr %10, align 4, !tbaa !8
  store ptr %4, ptr %11, align 8, !tbaa !13
  store i32 %5, ptr %12, align 4, !tbaa !8
  call void @llvm.lifetime.start.p0(i64 1, ptr %13) #5
  store i8 -1, ptr %13, align 1, !tbaa !12
  call void @llvm.lifetime.start.p0(i64 4, ptr %14) #5
  call void @llvm.lifetime.start.p0(i64 4, ptr %15) #5
  store i32 0, ptr %15, align 4, !tbaa !8
  br label %17

17:                                               ; preds = %56, %6
  %18 = load i32, ptr %15, align 4, !tbaa !8
  %19 = load i32, ptr %10, align 4, !tbaa !8
  %20 = icmp slt i32 %18, %19
  br i1 %20, label %21, label %59

21:                                               ; preds = %17
  store i32 0, ptr %14, align 4, !tbaa !8
  br label %22

22:                                               ; preds = %44, %21
  %23 = load i32, ptr %14, align 4, !tbaa !8
  %24 = load i32, ptr %9, align 4, !tbaa !8
  %25 = icmp slt i32 %23, %24
  br i1 %25, label %26, label %47

26:                                               ; preds = %22
  call void @llvm.lifetime.start.p0(i64 1, ptr %16) #5
  %27 = load ptr, ptr %7, align 8, !tbaa !13
  %28 = load i32, ptr %14, align 4, !tbaa !8
  %29 = mul nsw i32 4, %28
  %30 = sext i32 %29 to i64
  %31 = getelementptr inbounds i8, ptr %27, i64 %30
  %32 = load i8, ptr %31, align 1, !tbaa !12
  store i8 %32, ptr %16, align 1, !tbaa !12
  %33 = load i8, ptr %16, align 1, !tbaa !12
  %34 = load ptr, ptr %11, align 8, !tbaa !13
  %35 = load i32, ptr %14, align 4, !tbaa !8
  %36 = sext i32 %35 to i64
  %37 = getelementptr inbounds i8, ptr %34, i64 %36
  store i8 %33, ptr %37, align 1, !tbaa !12
  %38 = load i8, ptr %16, align 1, !tbaa !12
  %39 = zext i8 %38 to i32
  %40 = load i8, ptr %13, align 1, !tbaa !12
  %41 = zext i8 %40 to i32
  %42 = and i32 %41, %39
  %43 = trunc i32 %42 to i8
  store i8 %43, ptr %13, align 1, !tbaa !12
  call void @llvm.lifetime.end.p0(i64 1, ptr %16) #5
  br label %44

44:                                               ; preds = %26
  %45 = load i32, ptr %14, align 4, !tbaa !8
  %46 = add nsw i32 %45, 1
  store i32 %46, ptr %14, align 4, !tbaa !8
  br label %22, !llvm.loop !26

47:                                               ; preds = %22
  %48 = load i32, ptr %8, align 4, !tbaa !8
  %49 = load ptr, ptr %7, align 8, !tbaa !13
  %50 = sext i32 %48 to i64
  %51 = getelementptr inbounds i8, ptr %49, i64 %50
  store ptr %51, ptr %7, align 8, !tbaa !13
  %52 = load i32, ptr %12, align 4, !tbaa !8
  %53 = load ptr, ptr %11, align 8, !tbaa !13
  %54 = sext i32 %52 to i64
  %55 = getelementptr inbounds i8, ptr %53, i64 %54
  store ptr %55, ptr %11, align 8, !tbaa !13
  br label %56

56:                                               ; preds = %47
  %57 = load i32, ptr %15, align 4, !tbaa !8
  %58 = add nsw i32 %57, 1
  store i32 %58, ptr %15, align 4, !tbaa !8
  br label %17, !llvm.loop !27

59:                                               ; preds = %17
  %60 = load i8, ptr %13, align 1, !tbaa !12
  %61 = zext i8 %60 to i32
  %62 = icmp eq i32 %61, 255
  %63 = zext i1 %62 to i32
  call void @llvm.lifetime.end.p0(i64 4, ptr %15) #5
  call void @llvm.lifetime.end.p0(i64 4, ptr %14) #5
  call void @llvm.lifetime.end.p0(i64 1, ptr %13) #5
  ret i32 %63
}