; Function Attrs: nofree norecurse nosync nounwind memory(argmem: readwrite) uwtable
define internal range(i32 0, 2) i32 @ExtractAlpha_C(ptr noalias noundef readonly captures(none) %0, i32 noundef %1, i32 noundef %2, i32 noundef %3, ptr noalias noundef writeonly captures(none) %4, i32 noundef %5) #0 {
  %7 = icmp sgt i32 %3, 0
  br i1 %7, label %.preheader.lr.ph, label %._crit_edge27

.preheader.lr.ph:                                 ; preds = %6
  %8 = icmp sgt i32 %2, 0
  %9 = sext i32 %1 to i64
  %10 = sext i32 %5 to i64
  br i1 %8, label %.preheader.us.preheader, label %._crit_edge27

.preheader.us.preheader:                          ; preds = %.preheader.lr.ph
  %wide.trip.count = zext nneg i32 %2 to i64
  br label %.preheader.us

.preheader.us:                                    ; preds = %.preheader.us.preheader, %._crit_edge.us
  %.026.us = phi ptr [ %17, %._crit_edge.us ], [ %0, %.preheader.us.preheader ]
  %.01725.us = phi i32 [ %19, %._crit_edge.us ], [ 0, %.preheader.us.preheader ]
  %.01924.us = phi i8 [ %16, %._crit_edge.us ], [ -1, %.preheader.us.preheader ]
  %.02023.us = phi ptr [ %18, %._crit_edge.us ], [ %4, %.preheader.us.preheader ]
  br label %11

11:                                               ; preds = %.preheader.us, %11
  %indvars.iv = phi i64 [ 0, %.preheader.us ], [ %indvars.iv.next, %11 ]
  %.121.us = phi i8 [ %.01924.us, %.preheader.us ], [ %16, %11 ]
  %12 = shl nsw i64 %indvars.iv, 2
  %13 = getelementptr inbounds nuw i8, ptr %.026.us, i64 %12
  %14 = load i8, ptr %13, align 1, !tbaa !9
  %15 = getelementptr inbounds nuw i8, ptr %.02023.us, i64 %indvars.iv
  store i8 %14, ptr %15, align 1, !tbaa !9
  %16 = and i8 %14, %.121.us
  %indvars.iv.next = add nuw nsw i64 %indvars.iv, 1
  %exitcond.not = icmp eq i64 %indvars.iv.next, %wide.trip.count
  br i1 %exitcond.not, label %._crit_edge.us, label %11, !llvm.loop !24

._crit_edge.us:                                   ; preds = %11
  %17 = getelementptr inbounds i8, ptr %.026.us, i64 %9
  %18 = getelementptr inbounds i8, ptr %.02023.us, i64 %10
  %19 = add nuw nsw i32 %.01725.us, 1
  %exitcond30.not = icmp eq i32 %19, %3
  br i1 %exitcond30.not, label %._crit_edge27.loopexit, label %.preheader.us, !llvm.loop !25

._crit_edge27.loopexit:                           ; preds = %._crit_edge.us
  %20 = icmp eq i8 %16, -1
  %21 = zext i1 %20 to i32
  br label %._crit_edge27

._crit_edge27:                                    ; preds = %.preheader.lr.ph, %._crit_edge27.loopexit, %6
  %.019.lcssa = phi i32 [ 1, %6 ], [ %21, %._crit_edge27.loopexit ], [ 1, %.preheader.lr.ph ]
  ret i32 %.019.lcssa
}